; Function Attrs: mustprogress uwtable
define hidden void @_ZN2dd4bddv3shrEv(ptr nocapture noundef nonnull readonly align 8 dereferenceable(16) %this) local_unnamed_addr #3 align 2 personality ptr @__gxx_personality_v0 {
entry:
  %ref.tmp = alloca %"class.dd::bdd", align 8
  br label %for.cond

for.cond:                                         ; preds = %for.body, %entry
  %indvars.iv = phi i64 [ %indvars.iv.next, %for.body ], [ 1, %entry ]
  %0 = load ptr, ptr %this, align 8
  %cmp.i.i = icmp eq ptr %0, null
  br i1 %cmp.i.i, label %_ZNK2dd4bddv4sizeEv.exit, label %if.end.i.i

if.end.i.i:                                       ; preds = %for.cond
  %arrayidx.i.i = getelementptr inbounds i8, ptr %0, i64 -4
  %1 = load i32, ptr %arrayidx.i.i, align 4
  br label %_ZNK2dd4bddv4sizeEv.exit

_ZNK2dd4bddv4sizeEv.exit:                         ; preds = %for.cond, %if.end.i.i
  %retval.0.i.i = phi i32 [ %1, %if.end.i.i ], [ 0, %for.cond ]
  %2 = zext i32 %retval.0.i.i to i64
  %cmp = icmp ult i64 %indvars.iv, %2
  br i1 %cmp, label %for.body, label %for.end

for.body:                                         ; preds = %_ZNK2dd4bddv4sizeEv.exit
  %arrayidx.i = getelementptr inbounds %"class.dd::bdd", ptr %0, i64 %indvars.iv
  %3 = getelementptr %"class.dd::bdd", ptr %0, i64 %indvars.iv
  %arrayidx.i5 = getelementptr i8, ptr %3, i64 -16
  %call5 = tail call noundef nonnull align 8 dereferenceable(16) ptr @_ZN2dd3bddaSERKS0_(ptr noundef nonnull align 8 dereferenceable(16) %arrayidx.i5, ptr noundef nonnull align 8 dereferenceable(16) %arrayidx.i)
  %indvars.iv.next = add nuw nsw i64 %indvars.iv, 1
  br label %for.cond, !llvm.loop !413

for.end:                                          ; preds = %_ZNK2dd4bddv4sizeEv.exit
  %m = getelementptr inbounds i8, ptr %this, i64 8
  %4 = load ptr, ptr %m, align 8
  tail call void @llvm.experimental.noalias.scope.decl(metadata !414)
  store i32 0, ptr %ref.tmp, align 8, !alias.scope !414
  %m3.i.i = getelementptr inbounds i8, ptr %ref.tmp, i64 8
  store ptr %4, ptr %m3.i.i, align 8, !alias.scope !414
  %m_nodes.i.i.i = getelementptr inbounds i8, ptr %4, i64 8
  %5 = load ptr, ptr %m_nodes.i.i.i, align 8, !noalias !414
  %bf.load.i.i.i = load i32, ptr %5, align 4, !noalias !414
  %bf.clear.i.i.i = and i32 %bf.load.i.i.i, 1023
  %cmp.not.i.i.i = icmp eq i32 %bf.clear.i.i.i, 1023
  br i1 %cmp.not.i.i.i, label %if.end.i.i.i, label %if.then.i.i.i

if.then.i.i.i:                                    ; preds = %for.end
  %inc.i.i.i = add i32 %bf.load.i.i.i, 1
  %bf.value.i.i.i = and i32 %inc.i.i.i, 1023
  %bf.clear7.i.i.i = and i32 %bf.load.i.i.i, -1024
  %bf.set.i.i.i = or disjoint i32 %bf.value.i.i.i, %bf.clear7.i.i.i
  store i32 %bf.set.i.i.i, ptr %5, align 4, !noalias !414
  br label %if.end.i.i.i

if.end.i.i.i:                                     ; preds = %if.then.i.i.i, %for.end
  %m_free_nodes.i.i.i = getelementptr inbounds i8, ptr %4, i64 112
  %6 = load ptr, ptr %m_free_nodes.i.i.i, align 8, !noalias !414
  %cmp.i.i.i.i.i.i = icmp eq ptr %6, null
  br i1 %cmp.i.i.i.i.i.i, label %_ZN2dd11bdd_manager8mk_falseEv.exit, label %_ZNK6vectorIjLb0EjE3endEv.exit.i.i.i.i

_ZNK6vectorIjLb0EjE3endEv.exit.i.i.i.i:           ; preds = %if.end.i.i.i
  %arrayidx.i.i.i.i.i.i = getelementptr inbounds i8, ptr %6, i64 -4
  %7 = load i32, ptr %arrayidx.i.i.i.i.i.i, align 4, !noalias !414
  %8 = zext i32 %7 to i64
  %add.ptr.i.i.i.i.i = getelementptr inbounds i32, ptr %6, i64 %8
  %cmp.not3.not.i.i.i.i = icmp eq i32 %7, 0
  br i1 %cmp.not3.not.i.i.i.i, label %_ZN2dd11bdd_manager8mk_falseEv.exit, label %for.body.i.i.i.i

for.cond.i.i.i.i:                                 ; preds = %for.body.i.i.i.i
  %incdec.ptr.i.i.i.i = getelementptr inbounds i8, ptr %it.04.i.i.i.i, i64 4
  %cmp.not.not.i.i.i.i = icmp eq ptr %incdec.ptr.i.i.i.i, %add.ptr.i.i.i.i.i
  br i1 %cmp.not.not.i.i.i.i, label %_ZN2dd11bdd_manager8mk_falseEv.exit, label %for.body.i.i.i.i, !llvm.loop !19

for.body.i.i.i.i:                                 ; preds = %_ZNK6vectorIjLb0EjE3endEv.exit.i.i.i.i, %for.cond.i.i.i.i
  %it.04.i.i.i.i = phi ptr [ %incdec.ptr.i.i.i.i, %for.cond.i.i.i.i ], [ %6, %_ZNK6vectorIjLb0EjE3endEv.exit.i.i.i.i ]
  %9 = load i32, ptr %it.04.i.i.i.i, align 4, !noalias !414
  %cmp3.i.i.i.i = icmp eq i32 %9, 0
  br i1 %cmp3.i.i.i.i, label %if.then9.i.i.i, label %for.cond.i.i.i.i

if.then9.i.i.i:                                   ; preds = %for.body.i.i.i.i
  tail call void @_Z26notify_assertion_violationPKciS0_(ptr noundef nonnull @.str.15, i32 noundef 186, ptr noundef nonnull @.str.16), !noalias !414
  tail call void @exit(i32 noundef 114) #26, !noalias !414
  unreachable

_ZN2dd11bdd_manager8mk_falseEv.exit:              ; preds = %for.cond.i.i.i.i, %if.end.i.i.i, %_ZNK6vectorIjLb0EjE3endEv.exit.i.i.i.i
  %10 = load ptr, ptr %this, align 8
  %cmp.i.i6 = icmp eq ptr %10, null
  br i1 %cmp.i.i6, label %invoke.cont, label %if.end.i.i7

if.end.i.i7:                                      ; preds = %_ZN2dd11bdd_manager8mk_falseEv.exit
  %arrayidx.i.i8 = getelementptr inbounds i8, ptr %10, i64 -4
  %11 = load i32, ptr %arrayidx.i.i8, align 4
  %12 = add i32 %11, -1
  %13 = zext i32 %12 to i64
  br label %invoke.cont

invoke.cont:                                      ; preds = %if.end.i.i7, %_ZN2dd11bdd_manager8mk_falseEv.exit
  %retval.0.i.i9 = phi i64 [ %13, %if.end.i.i7 ], [ 4294967295, %_ZN2dd11bdd_manager8mk_falseEv.exit ]
  %arrayidx.i12 = getelementptr inbounds %"class.dd::bdd", ptr %10, i64 %retval.0.i.i9
  %call12 = invoke noundef nonnull align 8 dereferenceable(16) ptr @_ZN2dd3bddaSERKS0_(ptr noundef nonnull align 8 dereferenceable(16) %arrayidx.i12, ptr noundef nonnull align 8 dereferenceable(16) %ref.tmp)
          to label %invoke.cont11 unwind label %lpad

invoke.cont11:                                    ; preds = %invoke.cont
  %14 = load ptr, ptr %m_nodes.i.i.i, align 8
  %bf.load.i.i = load i32, ptr %14, align 4
  %bf.clear.i.i = and i32 %bf.load.i.i, 1023
  %cmp.not.i.i = icmp eq i32 %bf.clear.i.i, 1023
  br i1 %cmp.not.i.i, label %if.end.i.i13, label %if.then.i.i

if.then.i.i:                                      ; preds = %invoke.cont11
  %dec.i.i = add i32 %bf.load.i.i, 1023
  %bf.value.i.i = and i32 %dec.i.i, 1023
  %bf.clear7.i.i = and i32 %bf.load.i.i, -1024
  %bf.set.i.i = or disjoint i32 %bf.value.i.i, %bf.clear7.i.i
  store i32 %bf.set.i.i, ptr %14, align 4
  br label %if.end.i.i13

if.end.i.i13:                                     ; preds = %if.then.i.i, %invoke.cont11
  %15 = load ptr, ptr %m_free_nodes.i.i.i, align 8
  %cmp.i.i.i.i.i = icmp eq ptr %15, null
  br i1 %cmp.i.i.i.i.i, label %_ZN2dd3bddD2Ev.exit, label %_ZNK6vectorIjLb0EjE3endEv.exit.i.i.i

_ZNK6vectorIjLb0EjE3endEv.exit.i.i.i:             ; preds = %if.end.i.i13
  %arrayidx.i.i.i.i.i = getelementptr inbounds i8, ptr %15, i64 -4
  %16 = load i32, ptr %arrayidx.i.i.i.i.i, align 4
  %17 = zext i32 %16 to i64
  %add.ptr.i.i.i.i = getelementptr inbounds i32, ptr %15, i64 %17
  %cmp.not3.not.i.i.i = icmp eq i32 %16, 0
  br i1 %cmp.not3.not.i.i.i, label %_ZN2dd3bddD2Ev.exit, label %for.body.i.i.i

for.cond.i.i.i:                                   ; preds = %for.body.i.i.i
  %incdec.ptr.i.i.i = getelementptr inbounds i8, ptr %it.04.i.i.i, i64 4
  %cmp.not.not.i.i.i = icmp eq ptr %incdec.ptr.i.i.i, %add.ptr.i.i.i.i
  br i1 %cmp.not.not.i.i.i, label %_ZN2dd3bddD2Ev.exit, label %for.body.i.i.i, !llvm.loop !19

for.body.i.i.i:                                   ; preds = %_ZNK6vectorIjLb0EjE3endEv.exit.i.i.i, %for.cond.i.i.i
  %it.04.i.i.i = phi ptr [ %incdec.ptr.i.i.i, %for.cond.i.i.i ], [ %15, %_ZNK6vectorIjLb0EjE3endEv.exit.i.i.i ]
  %18 = load i32, ptr %it.04.i.i.i, align 4
  %cmp3.i.i.i = icmp eq i32 %18, 0
  br i1 %cmp3.i.i.i, label %if.then9.i.i, label %for.cond.i.i.i

if.then9.i.i:                                     ; preds = %for.body.i.i.i
  invoke void @_Z26notify_assertion_violationPKciS0_(ptr noundef nonnull @.str.15, i32 noundef 187, ptr noundef nonnull @.str.16)
          to label %.noexc.i unwind label %terminate.lpad.i

.noexc.i:                                         ; preds = %if.then9.i.i
  tail call void @exit(i32 noundef 114) #26
  unreachable

terminate.lpad.i:                                 ; preds = %if.then9.i.i
  %19 = landingpad { ptr, i32 }
          catch ptr null
  %20 = extractvalue { ptr, i32 } %19, 0
  tail call void @__clang_call_terminate(ptr %20) #26
  unreachable

_ZN2dd3bddD2Ev.exit:                              ; preds = %for.cond.i.i.i, %if.end.i.i13, %_ZNK6vectorIjLb0EjE3endEv.exit.i.i.i
  ret void

lpad:                                             ; preds = %invoke.cont
  %21 = landingpad { ptr, i32 }
          cleanup
  call void @_ZN2dd3bddD2Ev(ptr noundef nonnull align 8 dereferenceable(16) %ref.tmp) #24
  resume { ptr, i32 } %21
}